target datalayout = "e-m:e-p270:32:32-p271:32:32-p272:64:64-i64:64-i128:128-f80:128-n8:16:32:64-S128"
target triple = "x86_64-pc-linux-gnu"

%"struct.faiss::InvertedLists" = type <{ ptr, i64, i64, i8, [7 x i8] }>
%"struct.faiss::InvertedLists.base" = type <{ ptr, i64, i64, i8 }>
%"struct.faiss::ReadOnlyInvertedLists.base" = type { %"struct.faiss::InvertedLists.base" }
%"struct.faiss::StopWordsInvertedLists" = type { %"struct.faiss::ReadOnlyInvertedLists.base", ptr, i64 }

; Function Attrs: mustprogress nounwind uwtable
define void @_ZN5faiss13InvertedListsC2Emm(ptr noundef nonnull align 8 dereferenceable(25) %0, i64 noundef %1, i64 noundef %2) unnamed_addr #1 align 2 {
  %4 = alloca ptr, align 8
  %5 = alloca i64, align 8
  %6 = alloca i64, align 8
  store ptr %0, ptr %4, align 8, !tbaa !9
  store i64 %1, ptr %5, align 8, !tbaa !11
  store i64 %2, ptr %6, align 8, !tbaa !11
  %7 = load ptr, ptr %4, align 8
  store ptr getelementptr inbounds inrange(-16, 144) ({ [20 x ptr] }, ptr @_ZTVN5faiss13InvertedListsE, i32 0, i32 0, i32 2), ptr %7, align 8, !tbaa !17
  %8 = getelementptr inbounds nuw %"struct.faiss::InvertedLists", ptr %7, i32 0, i32 1
  %9 = load i64, ptr %5, align 8, !tbaa !11
  store i64 %9, ptr %8, align 8, !tbaa !28
  %10 = getelementptr inbounds nuw %"struct.faiss::InvertedLists", ptr %7, i32 0, i32 2
  %11 = load i64, ptr %6, align 8, !tbaa !11
  store i64 %11, ptr %10, align 8, !tbaa !19
  %12 = getelementptr inbounds nuw %"struct.faiss::InvertedLists", ptr %7, i32 0, i32 3
  store i8 0, ptr %12, align 8, !tbaa !25
  ret void
}

; Function Attrs: mustprogress nounwind uwtable
define linkonce_odr void @_ZN5faiss21ReadOnlyInvertedListsC2Emm(ptr noundef nonnull align 8 dereferenceable(25) %0, i64 noundef %1, i64 noundef %2) unnamed_addr #1 comdat align 2 {
  %4 = alloca ptr, align 8
  %5 = alloca i64, align 8
  %6 = alloca i64, align 8
  store ptr %0, ptr %4, align 8, !tbaa !4
  store i64 %1, ptr %5, align 8, !tbaa !11
  store i64 %2, ptr %6, align 8, !tbaa !11
  %7 = load ptr, ptr %4, align 8
  %8 = load i64, ptr %5, align 8, !tbaa !11
  %9 = load i64, ptr %6, align 8, !tbaa !11
  call void @_ZN5faiss13InvertedListsC2Emm(ptr noundef nonnull align 8 dereferenceable(25) %7, i64 noundef %8, i64 noundef %9)
  store ptr getelementptr inbounds inrange(-16, 144) ({ [20 x ptr] }, ptr @_ZTVN5faiss21ReadOnlyInvertedListsE, i32 0, i32 0, i32 2), ptr %7, align 8, !tbaa !17
  ret void
}

; Function Attrs: mustprogress nounwind uwtable
define void @_ZN5faiss22StopWordsInvertedListsC2EPKNS_13InvertedListsEm(ptr noundef nonnull align 8 dereferenceable(48) %0, ptr noundef %1, i64 noundef %2) unnamed_addr #1 align 2 {
  %4 = alloca ptr, align 8
  %5 = alloca ptr, align 8
  %6 = alloca i64, align 8
  store ptr %0, ptr %4, align 8, !tbaa !61
  store ptr %1, ptr %5, align 8, !tbaa !9
  store i64 %2, ptr %6, align 8, !tbaa !11
  %7 = load ptr, ptr %4, align 8
  %8 = load ptr, ptr %5, align 8, !tbaa !9
  %9 = getelementptr inbounds nuw %"struct.faiss::InvertedLists", ptr %8, i32 0, i32 1
  %10 = load i64, ptr %9, align 8, !tbaa !28
  %11 = load ptr, ptr %5, align 8, !tbaa !9
  %12 = getelementptr inbounds nuw %"struct.faiss::InvertedLists", ptr %11, i32 0, i32 2
  %13 = load i64, ptr %12, align 8, !tbaa !19
  call void @_ZN5faiss21ReadOnlyInvertedListsC2Emm(ptr noundef nonnull align 8 dereferenceable(25) %7, i64 noundef %10, i64 noundef %13)
  store ptr getelementptr inbounds inrange(-16, 144) ({ [20 x ptr] }, ptr @_ZTVN5faiss22StopWordsInvertedListsE, i32 0, i32 0, i32 2), ptr %7, align 8, !tbaa !17
  %14 = getelementptr inbounds nuw %"struct.faiss::StopWordsInvertedLists", ptr %7, i32 0, i32 1
  %15 = load ptr, ptr %5, align 8, !tbaa !9
  store ptr %15, ptr %14, align 8, !tbaa !63
  %16 = getelementptr inbounds nuw %"struct.faiss::StopWordsInvertedLists", ptr %7, i32 0, i32 2
  %17 = load i64, ptr %6, align 8, !tbaa !11
  store i64 %17, ptr %16, align 8, !tbaa !65
  ret void
}