; Function Attrs: mustprogress nofree norecurse nosync nounwind willreturn memory(argmem: readwrite) uwtable
define void @_ZN5faiss22StopWordsInvertedListsC2EPKNS_13InvertedListsEm(ptr noundef nonnull writeonly align 8 captures(none) dereferenceable(48) initializes((0, 25), (32, 48)) %0, ptr noundef %1, i64 noundef %2) unnamed_addr #23 align 2 {
  %4 = getelementptr inbounds nuw i8, ptr %1, i64 8
  %5 = load i64, ptr %4, align 8, !tbaa !39
  %6 = getelementptr inbounds nuw i8, ptr %1, i64 16
  %7 = load i64, ptr %6, align 8, !tbaa !10
  %8 = getelementptr inbounds nuw i8, ptr %0, i64 8
  store i64 %5, ptr %8, align 8, !tbaa !39
  %9 = getelementptr inbounds nuw i8, ptr %0, i64 16
  store i64 %7, ptr %9, align 8, !tbaa !10
  %10 = getelementptr inbounds nuw i8, ptr %0, i64 24
  store i8 0, ptr %10, align 8, !tbaa !13
  store ptr getelementptr inbounds nuw inrange(-16, 144) (i8, ptr @_ZTVN5faiss22StopWordsInvertedListsE, i64 16), ptr %0, align 8, !tbaa !4
  %11 = getelementptr inbounds nuw i8, ptr %0, i64 32
  store ptr %1, ptr %11, align 8, !tbaa !80
  %12 = getelementptr inbounds nuw i8, ptr %0, i64 40
  store i64 %2, ptr %12, align 8, !tbaa !82
  ret void
}